(i__main__
DCS
p0
(dp1
S'lemmas'
p2
(lp3
(lp4
S'man'
p5
aa(lp6
S'abhyadhika'
p7
aS'ca'
p8
aS'api'
p9
aa(lp10
S'tapas'
p11
aS'yoga'
p12
aa(lp13
S'p\xc4\x81\xe1\xb9\x87\xe1\xb8\x8dava'
p14
aasS'dcs_chunks'
p15
(lp16
g5
ag7
ag8
ag9
ag11
ag12
ag14
asS'sent_id'
p17
I122173
sS'cng'
p18
(lp19
(lp20
S'-13'
p21
aa(lp22
S'79'
p23
aS'2'
p24
ag24
aa(lp25
S'3'
p26
aS'89'
p27
aa(lp28
S'79'
p29
aasS'sentence'
p30
S"manyate 'ByaDikAMScApi tapoyogena pARqavAn   "
p31
sb.