(i__main__
DCS
p0
(dp1
S'lemmas'
p2
(lp3
(lp4
S'kart\xe1\xb9\x9b'
p5
aS'k\xc4\x81rya'
p6
aa(lp7
S'para'
p8
aS'anya'
p9
aa(lp10
S'prastu'
p11
aS'abhidh\xc4\x81na'
p12
aa(lp13
S'k\xe1\xb9\xa3etraj\xc3\xb1a'
p14
aa(lp15
S'yad'
p16
aa(lp17
S'ca'
p18
aS'\xc4\x81tman'
p19
aS'iti'
p20
aS'artha'
p21
aasS'dcs_chunks'
p22
(lp23
g5
ag6
ag8
ag9
ag11
ag12
ag14
ag16
ag18
ag19
ag20
ag21
asS'sent_id'
p24
I27284
sS'cng'
p25
(lp26
(lp27
S'3'
p28
aS'156'
p29
aa(lp30
S'29'
p31
aS'29'
p32
aa(lp33
S'-190'
p34
aS'29'
p35
aa(lp36
S'29'
p37
aa(lp38
S'29'
p39
aa(lp40
S'2'
p41
aS'29'
p42
ag41
aS'29'
p43
aasS'sentence'
p44
S"kartfkAryayoH  paro'nyaH  prastutABiDAnaH  kzetrajYo yaS cAtmetyarTaH    "
p45
sb.