(i__main__
DCS
p0
(dp1
S'lemmas'
p2
(lp3
(lp4
S'up\xc4\x81s'
p5
aa(lp6
S'tapas'
p7
aS'ni\xe1\xb9\xa3\xe1\xb9\xadh\xc4\x81'
p8
aa(lp9
S'ha\xe1\xb9\x83sa'
p10
aa(lp11
S'mad'
p12
aa(lp13
S'muc'
p14
aS'kilbi\xe1\xb9\xa3a'
p15
aasS'dcs_chunks'
p16
(lp17
g5
ag7
ag8
ag10
ag12
ag14
ag15
asS'sent_id'
p18
I29088
sS'cng'
p19
(lp20
(lp21
S'-19'
p22
aa(lp23
S'3'
p24
aS'39'
p25
aa(lp26
S'69'
p27
aa(lp28
S'72'
p29
aa(lp30
S'-190'
p31
aS'39'
p32
aasS'sentence'
p33
S'upAsate taponizWA haMsaM mAM muktakilbizAH    '
p34
sb.