(i__main__
DCS
p0
(dp1
S'lemmas'
p2
(lp3
(lp4
S'yad'
p5
aa(lp6
S'tad'
p7
aa(lp8
S'tapas'
p9
aS'vana'
p10
aa(lp11
S'sarva'
p12
aa(lp13
S'nirdah'
p14
aa(lp15
S'ca'
p16
aS'astra'
p17
aS'tejas'
p18
aasS'dcs_chunks'
p19
(lp20
g5
ag7
ag9
ag10
ag12
ag14
ag16
ag17
ag18
asS'sent_id'
p21
I45474
sS'cng'
p22
(lp23
(lp24
S'101'
p25
aa(lp26
S'31'
p27
aa(lp28
S'3'
p29
aS'31'
p30
aa(lp31
S'31'
p32
aa(lp33
S'-190'
p34
aa(lp35
S'2'
p36
ag29
aS'91'
p37
aasS'sentence'
p38
S'yEs tat tapovanaM sarvaM nirdagDaM cAstratejasA   '
p39
sb.