(i__main__
DCS
p0
(dp1
S'lemmas'
p2
(lp3
(lp4
S'bahu'
p5
aS'api'
p6
aa(lp7
S'hi'
p8
aa(lp9
S'tantu'
p10
aa(lp11
S'pa\xe1\xb9\xada'
p12
aS'eka'
p13
aS'utpatti'
p14
aa(lp15
S'd\xe1\xb9\x9b\xc5\x9b'
p16
aasS'dcs_chunks'
p17
(lp18
g5
ag6
ag8
ag10
ag12
ag13
ag14
ag16
asS'sent_id'
p19
I74231
sS'cng'
p20
(lp21
(lp22
S'139'
p23
aS'2'
p24
aa(lp25
g24
aa(lp26
S'139'
p27
aa(lp28
S'149'
p29
aS'149'
p30
aS'30'
p31
aa(lp32
S'-190'
p33
aasS'sentence'
p34
S"bahuByo'pi hi tantuByaH  pawasyEkasyotpattir dfzwA   "
p35
sb.