(i__main__
DCS
p0
(dp1
S'lemmas'
p2
(lp3
(lp4
S'pur\xc4\x81'
p5
aasS'dcs_chunks'
p6
(lp7
g5
asS'sent_id'
p8
I420219
sS'cng'
p9
(lp10
(lp11
S'2'
p12
aasS'sentence'
p13
S'purA vatsAnAmapAkartoH    '
p14
sb.