(i__main__
DCS
p0
(dp1
S'lemmas'
p2
(lp3
(lp4
S'str\xc4\xab'
p5
aS'k\xe1\xb9\xa3\xc4\xabra'
p6
aa(lp7
S'ca'
p8
aS'eva'
p9
aa(lp10
S'varjay'
p11
aa(lp12
S'sarva'
p13
aS'\xc5\x9bukta'
p14
aa(lp15
S'ca'
p16
aS'eva'
p17
aa(lp18
S'hi'
p19
aasS'dcs_chunks'
p20
(lp21
g5
ag6
ag8
ag9
ag11
ag13
ag14
ag16
ag17
ag19
asS'sent_id'
p22
I19425
sS'cng'
p23
(lp24
(lp25
S'3'
p26
aS'31'
p27
aa(lp28
S'2'
p29
ag29
aa(lp30
S'-210'
p31
aa(lp32
g26
aS'41'
p33
aa(lp34
g29
ag29
aa(lp35
g29
aasS'sentence'
p36
S'strIkzIraM cEva varjyAni sarvaSuktAni cEva hi   '
p37
sb.