(i__main__
DCS
p0
(dp1
S'lemmas'
p2
(lp3
(lp4
S'yad'
p5
aa(lp6
S'stu'
p7
aasS'dcs_chunks'
p8
(lp9
g5
ag7
asS'sent_id'
p10
I304860
sS'cng'
p11
(lp12
(lp13
S'29'
p14
aa(lp15
S'-190'
p16
aasS'sentence'
p17
S'yaH  stutaH    '
p18
sb.