(i__main__
DCS
p0
(dp1
S'lemmas'
p2
(lp3
(lp4
S'yad'
p5
aa(lp6
S'vid'
p7
aa(lp8
S'veda'
p9
aS'na'
p10
aa(lp11
S'tad'
p12
aa(lp13
S'vid'
p14
aa(lp15
S'vid'
p16
aa(lp17
S'satya'
p18
aa(lp19
S'sth\xc4\x81'
p20
aa(lp21
S'yad'
p22
aS'tu'
p23
aa(lp24
S'tad'
p25
aa(lp26
S'vid'
p27
aa(lp28
S'vid'
p29
aasS'dcs_chunks'
p30
(lp31
g5
ag7
ag9
ag10
ag12
ag14
ag16
ag18
ag20
ag22
ag23
ag25
ag27
ag29
asS'sent_id'
p32
I356107
sS'cng'
p33
(lp34
(lp35
S'29'
p36
aa(lp37
S'-153'
p38
aa(lp39
S'79'
p40
aS'2'
p41
aa(lp42
S'29'
p43
aa(lp44
S'-153'
p45
aa(lp46
S'-210'
p47
aa(lp48
S'171'
p49
aa(lp50
S'-190'
p51
aa(lp52
S'29'
p53
ag41
aa(lp54
S'29'
p55
aa(lp56
S'-153'
p57
aa(lp58
S'-210'
p59
aasS'sentence'
p60
S'yo veda vedAnna sa veda vedyaM satye sTito yastu sa veda vedyam   '
p61
sb.